; Function Attrs: nounwind uwtable
define internal fastcc ptr @abstract_declarator(ptr noundef %rest, ptr noundef %tok, ptr noundef %ty) unnamed_addr #0 {
entry:
  %tok.addr = alloca ptr, align 8
  %dummy = alloca %struct.Type, align 8
  store ptr %tok, ptr %tok.addr, align 8
  %call = call fastcc ptr @pointers(ptr noundef nonnull %tok.addr, ptr noundef %tok, ptr noundef %ty)
  %0 = load ptr, ptr %tok.addr, align 8
  %call1 = tail call zeroext i1 @equal(ptr noundef %0, ptr noundef nonnull @.str.23) #13
  br i1 %call1, label %if.then, label %if.end

if.then:                                          ; preds = %entry
  call void @llvm.memset.p0.i64(ptr noundef nonnull align 8 dereferenceable(120) %dummy, i8 0, i64 120, i1 false)
  %next = getelementptr inbounds %struct.Token, ptr %0, i64 0, i32 1
  %1 = load ptr, ptr %next, align 8
  %call2 = call fastcc ptr @abstract_declarator(ptr noundef nonnull %tok.addr, ptr noundef %1, ptr noundef nonnull %dummy)
  %2 = load ptr, ptr %tok.addr, align 8
  %call3 = call ptr @skip(ptr noundef %2, ptr noundef nonnull @.str.24) #13
  store ptr %call3, ptr %tok.addr, align 8
  %call.i = call zeroext i1 @equal(ptr noundef %call3, ptr noundef nonnull @.str.23) #13
  br i1 %call.i, label %if.then.i, label %if.end.i

if.then.i:                                        ; preds = %if.then
  %next.i = getelementptr inbounds %struct.Token, ptr %call3, i64 0, i32 1
  %3 = load ptr, ptr %next.i, align 8
  %call1.i = call fastcc ptr @func_params(ptr noundef %rest, ptr noundef %3, ptr noundef %call)
  br label %type_suffix.exit

if.end.i:                                         ; preds = %if.then
  %call2.i = call zeroext i1 @equal(ptr noundef %call3, ptr noundef nonnull @.str.56) #13
  br i1 %call2.i, label %if.then3.i, label %if.end6.i

if.then3.i:                                       ; preds = %if.end.i
  %next4.i = getelementptr inbounds %struct.Token, ptr %call3, i64 0, i32 1
  %4 = load ptr, ptr %next4.i, align 8
  %call5.i = call fastcc ptr @array_dimensions(ptr noundef %rest, ptr noundef %4, ptr noundef %call)
  br label %type_suffix.exit

if.end6.i:                                        ; preds = %if.end.i
  store ptr %call3, ptr %rest, align 8
  br label %type_suffix.exit

type_suffix.exit:                                 ; preds = %if.then.i, %if.then3.i, %if.end6.i
  %retval.0.i = phi ptr [ %call1.i, %if.then.i ], [ %call5.i, %if.then3.i ], [ %call, %if.end6.i ]
  %5 = load ptr, ptr %next, align 8
  %call6 = call fastcc ptr @abstract_declarator(ptr noundef nonnull %tok.addr, ptr noundef %5, ptr noundef %retval.0.i)
  br label %return

if.end:                                           ; preds = %entry
  %call.i6 = tail call zeroext i1 @equal(ptr noundef %0, ptr noundef nonnull @.str.23) #13
  br i1 %call.i6, label %if.then.i14, label %if.end.i7

if.then.i14:                                      ; preds = %if.end
  %next.i15 = getelementptr inbounds %struct.Token, ptr %0, i64 0, i32 1
  %6 = load ptr, ptr %next.i15, align 8
  %call1.i16 = tail call fastcc ptr @func_params(ptr noundef %rest, ptr noundef %6, ptr noundef %call)
  br label %return

if.end.i7:                                        ; preds = %if.end
  %call2.i8 = tail call zeroext i1 @equal(ptr noundef %0, ptr noundef nonnull @.str.56) #13
  br i1 %call2.i8, label %if.then3.i11, label %if.end6.i9

if.then3.i11:                                     ; preds = %if.end.i7
  %next4.i12 = getelementptr inbounds %struct.Token, ptr %0, i64 0, i32 1
  %7 = load ptr, ptr %next4.i12, align 8
  %call5.i13 = tail call fastcc ptr @array_dimensions(ptr noundef %rest, ptr noundef %7, ptr noundef %call)
  br label %return

if.end6.i9:                                       ; preds = %if.end.i7
  store ptr %0, ptr %rest, align 8
  br label %return

return:                                           ; preds = %if.end6.i9, %if.then3.i11, %if.then.i14, %type_suffix.exit
  %retval.0 = phi ptr [ %call6, %type_suffix.exit ], [ %call1.i16, %if.then.i14 ], [ %call5.i13, %if.then3.i11 ], [ %call, %if.end6.i9 ]
  ret ptr %retval.0
}